target datalayout = "e-m:e-p270:32:32-p271:32:32-p272:64:64-i64:64-i128:128-f80:128-n8:16:32:64-S128"
target triple = "x86_64-pc-linux-gnu"

%struct.geod_geodesicline = type { double, double, double, double, double, double, double, double, double, double, double, double, double, double, double, double, double, double, double, double, double, double, double, double, double, double, double, double, double, double, [7 x double], [7 x double], [7 x double], [6 x double], [6 x double], i32 }

; Function Attrs: nounwind uwtable
define double @geod_gendirect(ptr noundef %0, double noundef %1, double noundef %2, double noundef %3, i32 noundef %4, double noundef %5, ptr noundef %6, ptr noundef %7, ptr noundef %8, ptr noundef %9, ptr noundef %10, ptr noundef %11, ptr noundef %12, ptr noundef %13) #0 {
  %15 = alloca ptr, align 8
  %16 = alloca double, align 8
  %17 = alloca double, align 8
  %18 = alloca double, align 8
  %19 = alloca i32, align 4
  %20 = alloca double, align 8
  %21 = alloca ptr, align 8
  %22 = alloca ptr, align 8
  %23 = alloca ptr, align 8
  %24 = alloca ptr, align 8
  %25 = alloca ptr, align 8
  %26 = alloca ptr, align 8
  %27 = alloca ptr, align 8
  %28 = alloca ptr, align 8
  %29 = alloca %struct.geod_geodesicline, align 8
  %30 = alloca i32, align 4
  store ptr %0, ptr %15, align 8, !tbaa !3
  store double %1, ptr %16, align 8, !tbaa !8
  store double %2, ptr %17, align 8, !tbaa !8
  store double %3, ptr %18, align 8, !tbaa !8
  store i32 %4, ptr %19, align 4, !tbaa !10
  store double %5, ptr %20, align 8, !tbaa !8
  store ptr %6, ptr %21, align 8, !tbaa !24
  store ptr %7, ptr %22, align 8, !tbaa !24
  store ptr %8, ptr %23, align 8, !tbaa !24
  store ptr %9, ptr %24, align 8, !tbaa !24
  store ptr %10, ptr %25, align 8, !tbaa !24
  store ptr %11, ptr %26, align 8, !tbaa !24
  store ptr %12, ptr %27, align 8, !tbaa !24
  store ptr %13, ptr %28, align 8, !tbaa !24
  call void @llvm.lifetime.start.p0(i64 512, ptr %29) #6
  call void @llvm.lifetime.start.p0(i64 4, ptr %30) #6
  %31 = load ptr, ptr %21, align 8, !tbaa !24
  %32 = icmp ne ptr %31, null
  %33 = select i1 %32, i32 128, i32 0
  %34 = load ptr, ptr %22, align 8, !tbaa !24
  %35 = icmp ne ptr %34, null
  %36 = select i1 %35, i32 264, i32 0
  %37 = or i32 %33, %36
  %38 = load ptr, ptr %23, align 8, !tbaa !24
  %39 = icmp ne ptr %38, null
  %40 = select i1 %39, i32 512, i32 0
  %41 = or i32 %37, %40
  %42 = load ptr, ptr %24, align 8, !tbaa !24
  %43 = icmp ne ptr %42, null
  %44 = select i1 %43, i32 1025, i32 0
  %45 = or i32 %41, %44
  %46 = load ptr, ptr %25, align 8, !tbaa !24
  %47 = icmp ne ptr %46, null
  %48 = select i1 %47, i32 4101, i32 0
  %49 = or i32 %45, %48
  %50 = load ptr, ptr %26, align 8, !tbaa !24
  %51 = icmp ne ptr %50, null
  br i1 %51, label %55, label %52

52:                                               ; preds = %14
  %53 = load ptr, ptr %27, align 8, !tbaa !24
  %54 = icmp ne ptr %53, null
  br label %55

55:                                               ; preds = %52, %14
  %56 = phi i1 [ true, %14 ], [ %54, %52 ]
  %57 = select i1 %56, i32 8197, i32 0
  %58 = or i32 %49, %57
  %59 = load ptr, ptr %28, align 8, !tbaa !24
  %60 = icmp ne ptr %59, null
  %61 = select i1 %60, i32 16400, i32 0
  %62 = or i32 %58, %61
  store i32 %62, ptr %30, align 4, !tbaa !10
  %63 = load ptr, ptr %15, align 8, !tbaa !3
  %64 = load double, ptr %16, align 8, !tbaa !8
  %65 = load double, ptr %17, align 8, !tbaa !8
  %66 = load double, ptr %18, align 8, !tbaa !8
  %67 = load i32, ptr %30, align 4, !tbaa !10
  %68 = load i32, ptr %19, align 4, !tbaa !10
  %69 = and i32 %68, 1
  %70 = icmp ne i32 %69, 0
  %71 = select i1 %70, i32 0, i32 2051
  %72 = or i32 %67, %71
  call void @geod_lineinit(ptr noundef %29, ptr noundef %63, double noundef %64, double noundef %65, double noundef %66, i32 noundef %72)
  %73 = load i32, ptr %19, align 4, !tbaa !10
  %74 = load double, ptr %20, align 8, !tbaa !8
  %75 = load ptr, ptr %21, align 8, !tbaa !24
  %76 = load ptr, ptr %22, align 8, !tbaa !24
  %77 = load ptr, ptr %23, align 8, !tbaa !24
  %78 = load ptr, ptr %24, align 8, !tbaa !24
  %79 = load ptr, ptr %25, align 8, !tbaa !24
  %80 = load ptr, ptr %26, align 8, !tbaa !24
  %81 = load ptr, ptr %27, align 8, !tbaa !24
  %82 = load ptr, ptr %28, align 8, !tbaa !24
  %83 = call double @geod_genposition(ptr noundef %29, i32 noundef %73, double noundef %74, ptr noundef %75, ptr noundef %76, ptr noundef %77, ptr noundef %78, ptr noundef %79, ptr noundef %80, ptr noundef %81, ptr noundef %82)
  call void @llvm.lifetime.end.p0(i64 4, ptr %30) #6
  call void @llvm.lifetime.end.p0(i64 512, ptr %29) #6
  ret double %83
}

; Function Attrs: nounwind uwtable
define void @geod_direct(ptr noundef %0, double noundef %1, double noundef %2, double noundef %3, double noundef %4, ptr noundef %5, ptr noundef %6, ptr noundef %7) #0 {
  %9 = alloca ptr, align 8
  %10 = alloca double, align 8
  %11 = alloca double, align 8
  %12 = alloca double, align 8
  %13 = alloca double, align 8
  %14 = alloca ptr, align 8
  %15 = alloca ptr, align 8
  %16 = alloca ptr, align 8
  store ptr %0, ptr %9, align 8, !tbaa !3
  store double %1, ptr %10, align 8, !tbaa !8
  store double %2, ptr %11, align 8, !tbaa !8
  store double %3, ptr %12, align 8, !tbaa !8
  store double %4, ptr %13, align 8, !tbaa !8
  store ptr %5, ptr %14, align 8, !tbaa !24
  store ptr %6, ptr %15, align 8, !tbaa !24
  store ptr %7, ptr %16, align 8, !tbaa !24
  %17 = load ptr, ptr %9, align 8, !tbaa !3
  %18 = load double, ptr %10, align 8, !tbaa !8
  %19 = load double, ptr %11, align 8, !tbaa !8
  %20 = load double, ptr %12, align 8, !tbaa !8
  %21 = load double, ptr %13, align 8, !tbaa !8
  %22 = load ptr, ptr %14, align 8, !tbaa !24
  %23 = load ptr, ptr %15, align 8, !tbaa !24
  %24 = load ptr, ptr %16, align 8, !tbaa !24
  %25 = call double @geod_gendirect(ptr noundef %17, double noundef %18, double noundef %19, double noundef %20, i32 noundef 0, double noundef %21, ptr noundef %22, ptr noundef %23, ptr noundef %24, ptr noundef null, ptr noundef null, ptr noundef null, ptr noundef null, ptr noundef null)
  ret void
}